Certificate:
    Data:
        Version: 3 (0x2)
        Serial Number:
            b7:48:43:33:eb:b0:94:c2
        Signature Algorithm: sha512WithRSAEncryption
        Issuer: C = US, ST = New York, L = New York, O = Netspark, OU = Netspark RIM, CN = www.netspark.com, emailAddress = support@netspark.com
        Validity
            Not Before: Jul 14 14:06:50 2016 GMT
            Not After : Jul  9 14:06:50 2036 GMT
        Subject: C = US, ST = New York, L = New York, O = Netspark, OU = Netspark RIM, CN = www.netspark.com, emailAddress = support@netspark.com
        Subject Public Key Info:
            Public Key Algorithm: rsaEncryption
                RSA Public-Key: (4096 bit)
                Modulus:
                    00:b8:59:89:1c:5a:5a:89:8a:a8:1c:3e:97:36:5d:
                    cd:10:a7:e7:c6:16:7f:19:b1:cb:7c:27:8c:70:1e:
                    dd:46:12:72:f5:05:47:32:31:b7:b6:1f:ba:60:d7:
                    80:e3:6f:8b:65:97:3a:49:2f:bb:1d:72:40:8f:74:
                    b8:16:89:cf:9f:ad:d4:4f:7d:d4:7f:0e:99:ed:58:
                    b9:4c:71:9d:7a:51:d9:dc:75:94:ac:b8:73:a2:46:
                    c2:8b:2d:e3:d0:74:0f:45:dc:63:05:e3:12:e6:b2:
                    f0:94:5a:57:2e:9b:b3:b2:02:3d:29:52:8c:f9:ed:
                    a4:8b:61:81:6d:a2:04:b6:86:ad:06:01:48:dd:6d:
                    7d:ab:f9:4e:eb:c9:10:42:2e:23:c3:b8:6f:fa:87:
                    88:43:84:bc:b8:32:4e:74:ae:b3:59:0a:85:73:ba:
                    e3:c7:f4:94:cd:eb:6f:7c:58:9f:7a:70:0d:c7:2d:
                    52:69:65:a7:b8:f1:64:a6:fb:2a:86:96:75:ac:a2:
                    c4:fb:d1:d7:f5:c0:08:73:a4:fd:0c:f3:17:5c:db:
                    ad:d2:ab:ca:f7:60:3e:5a:61:ac:68:20:d1:54:e8:
                    ba:c2:bb:e4:23:0f:5d:7f:c9:04:b6:21:0d:25:d9:
                    b8:02:94:5d:d6:ec:c1:27:e7:43:1e:c3:e6:8e:7a:
                    17:4b:23:96:7b:0b:cc:e8:00:a6:ee:64:39:c3:a0:
                    2c:d7:2f:88:cb:46:c7:66:10:df:c6:39:4f:bc:0d:
                    d1:05:c3:e7:6a:51:2b:c7:dc:00:c2:c7:a4:5b:43:
                    74:ef:47:f3:03:25:f9:5d:bf:5b:09:cd:be:62:9e:
                    12:d0:c0:f2:09:cf:ee:33:e9:46:ec:60:33:47:d0:
                    ce:31:1b:4e:8e:d3:38:64:d5:d8:dd:a5:1c:97:7a:
                    5e:0a:23:8d:5f:f9:31:3a:1b:11:06:9e:12:6d:57:
                    a3:f8:db:18:3b:61:8b:8d:00:de:32:da:15:7e:1e:
                    c6:88:40:07:bb:ac:15:e0:41:bb:ee:33:ab:30:54:
                    07:83:5b:66:36:9d:f4:2a:42:59:bc:34:b5:ff:45:
                    d0:0c:23:41:0e:30:dc:8a:b9:9a:84:bc:3c:bc:57:
                    08:ec:9c:43:23:d0:89:1a:bd:4e:2b:d0:d7:bb:ea:
                    9c:90:98:82:ca:03:8a:0e:62:3d:31:95:16:14:26:
                    83:6d:ca:cb:de:d5:64:b0:b2:e2:33:e5:dc:c1:cb:
                    a6:12:cd:3e:a9:65:6a:b2:25:01:47:84:44:a1:77:
                    2e:f2:75:6e:fe:18:72:60:9a:c1:fb:b5:16:c8:ff:
                    e8:20:bd:d9:65:ef:67:7c:02:06:0c:48:89:6b:c7:
                    f4:31:4f
                Exponent: 65537 (0x10001)
        X509v3 extensions:
            X509v3 Subject Key Identifier: 
                1D:9D:C6:15:93:95:B0:46:02:96:43:56:C0:C6:22:7D:C5:03:2F:A5
            X509v3 Authority Key Identifier: 
                keyid:1D:9D:C6:15:93:95:B0:46:02:96:43:56:C0:C6:22:7D:C5:03:2F:A5

            X509v3 Basic Constraints: critical
                CA:TRUE
            X509v3 Key Usage: critical
                Digital Signature, Certificate Sign, CRL Sign
            Authority Information Access: 
                OCSP - URI:http://ocsp.netspark.com

    Signature Algorithm: sha512WithRSAEncryption
         38:7e:fa:f6:de:3f:98:6f:95:9c:3d:47:30:b7:e1:a5:7b:fe:
         18:3b:6a:92:31:71:4a:bf:bb:e6:e2:82:cb:c0:92:89:57:8c:
         9a:43:b0:32:d6:45:0a:3e:76:f8:59:8f:ed:72:9a:b9:e4:d6:
         d5:fe:61:02:60:ac:e3:ef:a0:51:87:52:8c:38:20:90:17:5f:
         ec:0f:e2:07:f0:f5:1b:0d:85:3c:ab:9c:c0:83:40:89:2f:27:
         cd:82:b2:fb:c9:07:c7:ad:87:7d:b9:75:b3:9c:86:dd:0e:f9:
         23:a8:2b:9f:b1:ec:c6:6e:30:f2:a5:35:56:62:df:0d:67:ab:
         93:6d:d3:17:26:80:d0:87:0b:0d:29:9c:d7:74:5a:10:a6:32:
         9d:ff:05:db:a2:8f:8e:47:37:9d:f9:a4:d7:36:ad:83:3c:f2:
         4a:4a:74:58:01:0a:dc:e2:a3:e6:16:84:c1:90:6d:07:97:73:
         7c:38:19:bb:01:db:3a:4f:73:2f:4a:65:7c:6e:43:31:8b:cd:
         e1:4d:8a:ce:4a:50:a5:da:bf:39:f5:1f:3d:34:91:28:e4:78:
         81:15:70:bc:1b:a5:82:e4:eb:51:04:d6:4b:c1:01:c7:91:41:
         8d:98:bb:26:aa:c0:c0:be:9e:72:a2:c3:64:92:57:a3:94:08:
         0a:65:c1:9b:73:5b:34:91:81:c6:cb:c4:bd:00:67:6e:2a:46:
         d6:d9:3c:97:48:e0:c6:83:be:09:a9:2a:86:c9:11:d5:7e:8a:
         3e:47:c4:2d:06:7f:36:77:bf:93:c4:2e:a1:c8:e9:56:18:dc:
         05:bd:28:b8:ff:f1:89:1c:1c:1e:06:3e:12:fc:a0:c9:9f:b9:
         42:63:d0:34:ab:c1:cf:06:0b:59:44:44:f0:a2:cf:bb:2a:6d:
         70:ff:f6:b1:74:e5:b5:80:b0:33:98:2c:65:3b:d9:7f:06:54:
         fb:a3:c6:04:c6:71:1b:0e:1f:79:ab:7e:e4:63:c3:8c:ec:53:
         7f:e4:0f:98:bb:e6:54:f7:9a:bc:10:39:36:a0:d5:fb:9b:85:
         1f:8f:a7:65:af:19:12:49:58:11:ca:9e:6d:a5:78:a4:8f:c5:
         ec:eb:7d:99:f2:1e:33:ac:5a:5b:8d:5a:28:e9:1d:18:3b:a0:
         cb:31:b1:c6:6e:14:e7:c0:cb:eb:8f:c2:34:96:49:11:03:d6:
         e3:51:33:b6:14:ea:40:0b:74:a0:87:ed:a3:cb:94:3d:ad:05:
         24:03:58:33:7c:87:80:1e:69:98:3b:03:96:5b:c9:8c:36:88:
         68:3a:45:2f:cb:a5:1e:63:ab:de:36:68:12:37:8d:ae:fe:87:
         62:aa:36:d9:93:71:43:91
-----BEGIN CERTIFICATE-----
MIIGWjCCBEKgAwIBAgIJALdIQzPrsJTCMA0GCSqGSIb3DQEBDQUAMIGdMQswCQYD
VQQGEwJVUzERMA8GA1UECAwITmV3IFlvcmsxETAPBgNVBAcMCE5ldyBZb3JrMREw
DwYDVQQKDAhOZXRzcGFyazEVMBMGA1UECwwMTmV0c3BhcmsgUklNMRkwFwYDVQQD
DBB3d3cubmV0c3BhcmsuY29tMSMwIQYJKoZIhvcNAQkBFhRzdXBwb3J0QG5ldHNw
YXJrLmNvbTAeFw0xNjA3MTQxNDA2NTBaFw0zNjA3MDkxNDA2NTBaMIGdMQswCQYD
VQQGEwJVUzERMA8GA1UECAwITmV3IFlvcmsxETAPBgNVBAcMCE5ldyBZb3JrMREw
DwYDVQQKDAhOZXRzcGFyazEVMBMGA1UECwwMTmV0c3BhcmsgUklNMRkwFwYDVQQD
DBB3d3cubmV0c3BhcmsuY29tMSMwIQYJKoZIhvcNAQkBFhRzdXBwb3J0QG5ldHNw
YXJrLmNvbTCCAiIwDQYJKoZIhvcNAQEBBQADggIPADCCAgoCggIBALhZiRxaWomK
qBw+lzZdzRCn58YWfxmxy3wnjHAe3UYScvUFRzIxt7YfumDXgONvi2WXOkkvux1y
QI90uBaJz5+t1E991H8Ome1YuUxxnXpR2dx1lKy4c6JGwost49B0D0XcYwXjEuay
8JRaVy6bs7ICPSlSjPntpIthgW2iBLaGrQYBSN1tfav5TuvJEEIuI8O4b/qHiEOE
vLgyTnSus1kKhXO648f0lM3rb3xYn3pwDcctUmllp7jxZKb7KoaWdayixPvR1/XA
CHOk/QzzF1zbrdKryvdgPlphrGgg0VTousK75CMPXX/JBLYhDSXZuAKUXdbswSfn
Qx7D5o56F0sjlnsLzOgApu5kOcOgLNcviMtGx2YQ38Y5T7wN0QXD52pRK8fcAMLH
pFtDdO9H8wMl+V2/WwnNvmKeEtDA8gnP7jPpRuxgM0fQzjEbTo7TOGTV2N2lHJd6
XgojjV/5MTobEQaeEm1Xo/jbGDthi40A3jLaFX4exohAB7usFeBBu+4zqzBUB4Nb
Zjad9CpCWbw0tf9F0AwjQQ4w3Iq5moS8PLxXCOycQyPQiRq9TivQ17vqnJCYgsoD
ig5iPTGVFhQmg23Ky97VZLCy4jPl3MHLphLNPqllarIlAUeERKF3LvJ1bv4YcmCa
wfu1Fsj/6CC92WXvZ3wCBgxIiWvH9DFPAgMBAAGjgZowgZcwHQYDVR0OBBYEFB2d
xhWTlbBGApZDVsDGIn3FAy+lMB8GA1UdIwQYMBaAFB2dxhWTlbBGApZDVsDGIn3F
Ay+lMA8GA1UdEwEB/wQFMAMBAf8wDgYDVR0PAQH/BAQDAgGGMDQGCCsGAQUFBwEB
BCgwJjAkBggrBgEFBQcwAYYYaHR0cDovL29jc3AubmV0c3BhcmsuY29tMA0GCSqG
SIb3DQEBDQUAA4ICAQA4fvr23j+Yb5WcPUcwt+Gle/4YO2qSMXFKv7vm4oLLwJKJ
V4yaQ7Ay1kUKPnb4WY/tcpq55NbV/mECYKzj76BRh1KMOCCQF1/sD+IH8PUbDYU8
q5zAg0CJLyfNgrL7yQfHrYd9uXWznIbdDvkjqCufsezGbjDypTVWYt8NZ6uTbdMX
JoDQhwsNKZzXdFoQpjKd/wXboo+ORzed+aTXNq2DPPJKSnRYAQrc4qPmFoTBkG0H
l3N8OBm7Ads6T3MvSmV8bkMxi83hTYrOSlCl2r859R89NJEo5HiBFXC8G6WC5OtR
BNZLwQHHkUGNmLsmqsDAvp5yosNkklejlAgKZcGbc1s0kYHGy8S9AGduKkbW2TyX
SODGg74JqSqGyRHVfoo+R8QtBn82d7+TxC6hyOlWGNwFvSi4//GJHBweBj4S/KDJ
n7lCY9A0q8HPBgtZRETwos+7Km1w//axdOW1gLAzmCxlO9l/BlT7o8YExnEbDh95
q37kY8OM7FN/5A+Yu+ZU95q8EDk2oNX7m4Ufj6dlrxkSSVgRyp5tpXikj8Xs632Z
8h4zrFpbjVoo6R0YO6DLMbHGbhTnwMvrj8I0lkkRA9bjUTO2FOpAC3Sgh+2jy5Q9
rQUkA1gzfIeAHmmYOwOWW8mMNohoOkUvy6UeY6veNmgSN42u/odiqjbZk3FDkQ==
-----END CERTIFICATE-----
